; Function Attrs: nounwind uwtable
define hidden noundef zeroext i1 @X11_StopTextInput(ptr noundef readnone captures(none) %0, ptr noundef readonly captures(none) %1) local_unnamed_addr #0 {
  %3 = getelementptr i8, ptr %1, i64 392
  %.val = load ptr, ptr %3, align 8
  %.not.i = icmp eq ptr %.val, null
  br i1 %.not.i, label %X11_ResetXIM.exit, label %4

4:                                                ; preds = %2
  %5 = getelementptr inbounds nuw i8, ptr %.val, i64 88
  %6 = load ptr, ptr %5, align 8
  %.not8.i = icmp eq ptr %6, null
  br i1 %.not8.i, label %X11_ResetXIM.exit, label %7

7:                                                ; preds = %4
  %8 = load ptr, ptr @X11_Xutf8ResetIC, align 8
  %9 = tail call ptr %8(ptr noundef nonnull %6) #9
  %.not9.i = icmp eq ptr %9, null
  br i1 %.not9.i, label %X11_ResetXIM.exit, label %10

10:                                               ; preds = %7
  %11 = load ptr, ptr @X11_XFree, align 8
  %12 = tail call i32 %11(ptr noundef nonnull %9) #9
  br label %X11_ResetXIM.exit

X11_ResetXIM.exit:                                ; preds = %2, %4, %7, %10
  ret i1 true
}